target datalayout = "e-m:e-p270:32:32-p271:32:32-p272:64:64-i64:64-i128:128-f80:128-n8:16:32:64-S128"
target triple = "x86_64-pc-linux-gnu"

; Function Attrs: alwaysinline nounwind willreturn memory(none) uwtable
define internal zeroext i8 @av_clip_uint8_c(i32 noundef %0) #4 {
  %2 = alloca i8, align 1
  %3 = alloca i32, align 4
  store i32 %0, ptr %3, align 4, !tbaa !13
  %4 = load i32, ptr %3, align 4, !tbaa !13
  %5 = and i32 %4, -256
  %6 = icmp ne i32 %5, 0
  br i1 %6, label %7, label %12

7:                                                ; preds = %1
  %8 = load i32, ptr %3, align 4, !tbaa !13
  %9 = xor i32 %8, -1
  %10 = ashr i32 %9, 31
  %11 = trunc i32 %10 to i8
  store i8 %11, ptr %2, align 1
  br label %15

12:                                               ; preds = %1
  %13 = load i32, ptr %3, align 4, !tbaa !13
  %14 = trunc i32 %13 to i8
  store i8 %14, ptr %2, align 1
  br label %15

15:                                               ; preds = %12, %7
  %16 = load i8, ptr %2, align 1
  ret i8 %16
}

; Function Attrs: nounwind uwtable
define internal void @weight_dirac_pixels16_c(ptr noundef %0, i32 noundef %1, i32 noundef %2, i32 noundef %3, i32 noundef %4) #1 {
  %6 = alloca ptr, align 8
  %7 = alloca i32, align 4
  %8 = alloca i32, align 4
  %9 = alloca i32, align 4
  %10 = alloca i32, align 4
  %11 = alloca i32, align 4
  store ptr %0, ptr %6, align 8, !tbaa !11
  store i32 %1, ptr %7, align 4, !tbaa !13
  store i32 %2, ptr %8, align 4, !tbaa !13
  store i32 %3, ptr %9, align 4, !tbaa !13
  store i32 %4, ptr %10, align 4, !tbaa !13
  call void @llvm.lifetime.start.p0(i64 4, ptr %11) #5
  br label %12

12:                                               ; preds = %64, %5
  %13 = load i32, ptr %10, align 4, !tbaa !13
  %14 = add nsw i32 %13, -1
  store i32 %14, ptr %10, align 4, !tbaa !13
  %15 = icmp ne i32 %13, 0
  br i1 %15, label %16, label %69

16:                                               ; preds = %12
  store i32 0, ptr %11, align 4, !tbaa !13
  br label %17

17:                                               ; preds = %61, %16
  %18 = load i32, ptr %11, align 4, !tbaa !13
  %19 = icmp slt i32 %18, 16
  br i1 %19, label %20, label %64

20:                                               ; preds = %17
  %21 = load ptr, ptr %6, align 8, !tbaa !11
  %22 = load i32, ptr %11, align 4, !tbaa !13
  %23 = sext i32 %22 to i64
  %24 = getelementptr inbounds i8, ptr %21, i64 %23
  %25 = load i8, ptr %24, align 1, !tbaa !15
  %26 = zext i8 %25 to i32
  %27 = load i32, ptr %9, align 4, !tbaa !13
  %28 = mul nsw i32 %26, %27
  %29 = load i32, ptr %8, align 4, !tbaa !13
  %30 = sub nsw i32 %29, 1
  %31 = shl i32 1, %30
  %32 = add nsw i32 %28, %31
  %33 = load i32, ptr %8, align 4, !tbaa !13
  %34 = ashr i32 %32, %33
  %35 = call zeroext i8 @av_clip_uint8_c(i32 noundef %34) #6
  %36 = load ptr, ptr %6, align 8, !tbaa !11
  %37 = load i32, ptr %11, align 4, !tbaa !13
  %38 = sext i32 %37 to i64
  %39 = getelementptr inbounds i8, ptr %36, i64 %38
  store i8 %35, ptr %39, align 1, !tbaa !15
  %40 = load ptr, ptr %6, align 8, !tbaa !11
  %41 = load i32, ptr %11, align 4, !tbaa !13
  %42 = add nsw i32 %41, 1
  %43 = sext i32 %42 to i64
  %44 = getelementptr inbounds i8, ptr %40, i64 %43
  %45 = load i8, ptr %44, align 1, !tbaa !15
  %46 = zext i8 %45 to i32
  %47 = load i32, ptr %9, align 4, !tbaa !13
  %48 = mul nsw i32 %46, %47
  %49 = load i32, ptr %8, align 4, !tbaa !13
  %50 = sub nsw i32 %49, 1
  %51 = shl i32 1, %50
  %52 = add nsw i32 %48, %51
  %53 = load i32, ptr %8, align 4, !tbaa !13
  %54 = ashr i32 %52, %53
  %55 = call zeroext i8 @av_clip_uint8_c(i32 noundef %54) #6
  %56 = load ptr, ptr %6, align 8, !tbaa !11
  %57 = load i32, ptr %11, align 4, !tbaa !13
  %58 = add nsw i32 %57, 1
  %59 = sext i32 %58 to i64
  %60 = getelementptr inbounds i8, ptr %56, i64 %59
  store i8 %55, ptr %60, align 1, !tbaa !15
  br label %61

61:                                               ; preds = %20
  %62 = load i32, ptr %11, align 4, !tbaa !13
  %63 = add nsw i32 %62, 1
  store i32 %63, ptr %11, align 4, !tbaa !13
  br label %17, !llvm.loop !43

64:                                               ; preds = %17
  %65 = load i32, ptr %7, align 4, !tbaa !13
  %66 = load ptr, ptr %6, align 8, !tbaa !11
  %67 = sext i32 %65 to i64
  %68 = getelementptr inbounds i8, ptr %66, i64 %67
  store ptr %68, ptr %6, align 8, !tbaa !11
  br label %12, !llvm.loop !44

69:                                               ; preds = %12
  call void @llvm.lifetime.end.p0(i64 4, ptr %11) #5
  ret void
}